ccopy_reg
_reconstructor
p0
(cmachine
Machine
p1
c__builtin__
object
p2
Ntp3
Rp4
(dp5
S'P'
p6
(dp7
S'a'
p8
((((g8
tp9
(S'm'
p10
tp11
tp12
S'b'
p13
tp14
((g12
tp15
(g13
tp16
tp17
tp18
sS'c'
p19
((((g19
tp20
(S'r'
p21
tp22
tp23
S'd'
p24
tp25
((g23
tp26
(g24
tp27
tp28
tp29
sg13
((((g13
tp30
(S'u'
p31
tp32
tp33
g19
tp34
((g33
tp35
(g19
tp36
tp37
tp38
sS'e'
p39
((((g39
tp40
(g24
tp41
tp42
S'f'
p43
tp44
((g42
tp45
(g43
tp46
tp47
tp48
sg24
((((g24
tp49
(g13
tp50
tp51
g39
tp52
((g51
tp53
(g39
tp54
tp55
tp56
sS'g'
p57
((((g57
tp58
(S'y'
p59
tp60
tp61
S'h'
p62
tp63
((g61
tp64
(g62
tp65
tp66
tp67
sg43
((((g43
tp68
(g13
tp69
tp70
g57
tp71
((g70
tp72
(g57
tp73
tp74
tp75
sS'i'
p76
((((g76
tp77
(g21
tp78
tp79
S'j'
p80
tp81
((g79
tp82
(g80
tp83
tp84
tp85
sg62
((((g62
tp86
(S's'
p87
tp88
tp89
g76
tp90
((g89
tp91
(g76
tp92
tp93
tp94
sS'k'
p95
((((g95
tp96
(S'p'
p97
tp98
tp99
S'l'
p100
tp101
((g99
tp102
(g100
tp103
tp104
tp105
sg80
((((g80
tp106
(g31
tp107
tp108
g95
tp109
((g108
tp110
(g95
tp111
tp112
tp113
sg10
((((g10
tp114
(g21
tp115
tp116
S'n'
p117
tp118
((g116
tp119
(g117
tp120
tp121
tp122
sg100
((((g100
tp123
(g39
tp124
tp125
g10
tp126
((g125
tp127
(g10
tp128
tp129
tp130
sS'o'
p131
((((g131
tp132
(g21
tp133
tp134
g97
tp135
((g134
tp136
(g97
tp137
tp138
tp139
sg117
((((g117
tp140
(g21
tp141
tp142
g131
tp143
((g142
tp144
(g131
tp145
tp146
tp147
sS'q'
p148
((((g148
tp149
(g21
tp150
tp151
g21
tp152
((g151
tp153
(g21
tp154
tp155
tp156
sg97
((((g97
tp157
(g97
tp158
tp159
g148
tp160
((g159
tp161
(g148
tp162
tp163
tp164
sg87
((((g87
tp165
(g148
tp166
tp167
S't'
p168
tp169
((g167
tp170
(g168
tp171
tp172
tp173
sg21
((((g21
tp174
(S'v'
p175
tp176
tp177
g87
tp178
((g177
tp179
(g87
tp180
tp181
tp182
sg31
((((g31
tp183
(g95
tp184
tp185
g175
tp186
((g185
tp187
(g175
tp188
tp189
tp190
sg168
((((g168
tp191
(g13
tp192
tp193
g31
tp194
((g193
tp195
(g31
tp196
tp197
tp198
sS'w'
p199
((((g199
tp200
(g95
tp201
tp202
S'x'
p203
tp204
((g202
tp205
(g203
tp206
tp207
tp208
sg175
((((g175
tp209
(g10
tp210
tp211
g199
tp212
((g211
tp213
(g199
tp214
tp215
tp216
sg59
((((g59
tp217
(g131
tp218
tp219
S'z'
p220
tp221
((g219
tp222
(g220
tp223
tp224
tp225
sg203
((((g203
tp226
(g76
tp227
tp228
g59
tp229
((g228
tp230
(g59
tp231
tp232
tp233
sg220
((((g220
tp234
(g80
tp235
tp236
g8
tp237
((g236
tp238
(g8
tp239
tp240
tp241
ssS'R'
p242
(dp243
g8
(tsg19
((ttp244
sg13
(tsg39
g244
sg24
(tsg57
(tsg43
(tsg76
g244
sg62
g244
sg95
(tsg80
g244
sg10
(tsg100
(tsg131
g244
sg117
g244
sg148
g244
sg97
(tsg87
g244
sg21
(tsg31
g244
sg168
(tsg199
(tsg175
(tsg59
g244
sg203
(tsg220
g244
ssb.