ccopy_reg
_reconstructor
p0
(cmachine
Machine
p1
c__builtin__
object
p2
Ntp3
Rp4
(dp5
S'P'
p6
(dp7
S'a'
p8
((g8
S'b'
p9
tp10
((g8
tp11
(g9
tp12
tp13
tp14
sS'c'
p15
((g15
S'd'
p16
tp17
((g15
tp18
(g16
tp19
tp20
tp21
sg9
((g9
g15
tp22
((g9
tp23
(g15
tp24
tp25
tp26
sS'e'
p27
((g27
S'f'
p28
tp29
((g27
tp30
(g28
tp31
tp32
tp33
sg16
((g16
g27
tp34
((g16
tp35
(g27
tp36
tp37
tp38
sS'g'
p39
((g39
S'h'
p40
tp41
((g39
tp42
(g40
tp43
tp44
tp45
sg28
((g28
g39
tp46
((g28
tp47
(g39
tp48
tp49
tp50
sS'i'
p51
((g51
S'j'
p52
tp53
((g51
tp54
(g52
tp55
tp56
tp57
sg40
((g40
g51
tp58
((g40
tp59
(g51
tp60
tp61
tp62
sS'k'
p63
((g63
S'l'
p64
tp65
((g63
tp66
(g64
tp67
tp68
tp69
sg52
((g52
g63
tp70
((g52
tp71
(g63
tp72
tp73
tp74
sS'm'
p75
((g75
S'n'
p76
tp77
((g75
tp78
(g76
tp79
tp80
tp81
sg64
((g64
g75
tp82
((g64
tp83
(g75
tp84
tp85
tp86
sS'o'
p87
((g87
S'p'
p88
tp89
((g87
tp90
(g88
tp91
tp92
tp93
sg76
((g76
g87
tp94
((g76
tp95
(g87
tp96
tp97
tp98
sS'q'
p99
((g99
S'r'
p100
tp101
((g99
tp102
(g100
tp103
tp104
tp105
sg88
((g88
g99
tp106
((g88
tp107
(g99
tp108
tp109
tp110
sS's'
p111
((g111
S't'
p112
tp113
((g111
tp114
(g112
tp115
tp116
tp117
sg100
((g100
g111
tp118
((g100
tp119
(g111
tp120
tp121
tp122
sS'u'
p123
((g123
S'v'
p124
tp125
((g123
tp126
(g124
tp127
tp128
tp129
sg112
((g112
g123
tp130
((g112
tp131
(g123
tp132
tp133
tp134
sS'w'
p135
((g135
S'x'
p136
tp137
((g135
tp138
(g136
tp139
tp140
tp141
sg124
((g124
g135
tp142
((g124
tp143
(g135
tp144
tp145
tp146
sS'y'
p147
((g147
S'z'
p148
tp149
((g147
tp150
(g148
tp151
tp152
tp153
sg136
((g136
g147
tp154
((g136
tp155
(g147
tp156
tp157
tp158
sg148
((g148
g8
tp159
((g148
tp160
(g8
tp161
tp162
tp163
ssS'R'
p164
(dp165
g8
((ttp166
sg15
g166
sg9
g166
sg27
g166
sg16
g166
sg39
g166
sg28
g166
sg51
g166
sg40
g166
sg63
g166
sg52
g166
sg75
g166
sg64
g166
sg87
g166
sg76
g166
sg99
g166
sg88
g166
sg111
g166
sg100
g166
sg123
g166
sg112
g166
sg135
g166
sg124
g166
sg147
g166
sg136
g166
sg148
(tssb.