ccopy_reg
_reconstructor
p0
(cmachine
Machine
p1
c__builtin__
object
p2
Ntp3
Rp4
(dp5
S'P'
p6
(dp7
S'a'
p8
((((g8
tp9
(S'l'
p10
tp11
tp12
S'b'
p13
tp14
((g12
tp15
(g13
tp16
tp17
tp18
sS'c'
p19
((((g19
tp20
(S'k'
p21
tp22
tp23
S'd'
p24
tp25
((g23
tp26
(g24
tp27
tp28
tp29
sg13
((((g13
tp30
(S'x'
p31
tp32
tp33
g19
tp34
((g33
tp35
(g19
tp36
tp37
tp38
sS'e'
p39
((((g39
tp40
(S'q'
p41
tp42
tp43
S'f'
p44
tp45
((g43
tp46
(g44
tp47
tp48
tp49
sg24
((((g24
tp50
(S'm'
p51
tp52
tp53
g39
tp54
((g53
tp55
(g39
tp56
tp57
tp58
sS'g'
p59
((((g59
tp60
(S'r'
p61
tp62
tp63
S'h'
p64
tp65
((g63
tp66
(g64
tp67
tp68
tp69
sg44
((((g44
tp70
(S'z'
p71
tp72
tp73
g59
tp74
((g73
tp75
(g59
tp76
tp77
tp78
sS'i'
p79
((((g79
tp80
(S'p'
p81
tp82
tp83
S'j'
p84
tp85
((g83
tp86
(g84
tp87
tp88
tp89
sg64
((((g64
tp90
(g13
tp91
tp92
g79
tp93
((g92
tp94
(g79
tp95
tp96
tp97
sg21
((((g21
tp98
(g64
tp99
tp100
g10
tp101
((g100
tp102
(g10
tp103
tp104
tp105
sg84
((((g84
tp106
(S'y'
p107
tp108
tp109
g21
tp110
((g109
tp111
(g21
tp112
tp113
tp114
sg51
((((g51
tp115
(g31
tp116
tp117
S'n'
p118
tp119
((g117
tp120
(g118
tp121
tp122
tp123
sg10
((((g10
tp124
(S'v'
p125
tp126
tp127
g51
tp128
((g127
tp129
(g51
tp130
tp131
tp132
sS'o'
p133
((((g133
tp134
(g84
tp135
tp136
g81
tp137
((g136
tp138
(g81
tp139
tp140
tp141
sg118
((((g118
tp142
(g41
tp143
tp144
g133
tp145
((g144
tp146
(g133
tp147
tp148
tp149
sg41
((((g41
tp150
(g10
tp151
tp152
g61
tp153
((g152
tp154
(g61
tp155
tp156
tp157
sg81
((((g81
tp158
(g21
tp159
tp160
g41
tp161
((g160
tp162
(g41
tp163
tp164
tp165
sS's'
p166
((((g166
tp167
(g64
tp168
tp169
S't'
p170
tp171
((g169
tp172
(g170
tp173
tp174
tp175
sg61
((((g61
tp176
(g21
tp177
tp178
g166
tp179
((g178
tp180
(g166
tp181
tp182
tp183
sS'u'
p184
((((g184
tp185
(g44
tp186
tp187
g125
tp188
((g187
tp189
(g125
tp190
tp191
tp192
sg170
((((g170
tp193
(g59
tp194
tp195
g184
tp196
((g195
tp197
(g184
tp198
tp199
tp200
sS'w'
p201
((((g201
tp202
(g201
tp203
tp204
g31
tp205
((g204
tp206
(g31
tp207
tp208
tp209
sg125
((((g125
tp210
(g24
tp211
tp212
g201
tp213
((g212
tp214
(g201
tp215
tp216
tp217
sg107
((((g107
tp218
(g39
tp219
tp220
g71
tp221
((g220
tp222
(g71
tp223
tp224
tp225
sg31
((((g31
tp226
(g39
tp227
tp228
g107
tp229
((g228
tp230
(g107
tp231
tp232
tp233
sg71
((((g71
tp234
(g170
tp235
tp236
g8
tp237
((g236
tp238
(g8
tp239
tp240
tp241
ssS'R'
p242
(dp243
g8
((ttp244
sg19
g244
sg13
(tsg39
g244
sg24
g244
sg59
(tsg44
g244
sg79
g244
sg64
g244
sg21
g244
sg84
g244
sg51
g244
sg10
(tsg133
g244
sg118
(tsg41
g244
sg81
(tsg166
g244
sg61
g244
sg184
(tsg170
g244
sg201
(tsg125
g244
sg107
(tsg31
(tsg71
(tssb.