ccopy_reg
_reconstructor
p0
(cmachine
Machine
p1
c__builtin__
object
p2
Ntp3
Rp4
(dp5
S'P'
p6
(dp7
S'a'
p8
((((g8
tp9
(S'v'
p10
tp11
tp12
S'b'
p13
tp14
((g12
tp15
(g13
tp16
tp17
tp18
sS'c'
p19
((((g19
tp20
(S't'
p21
tp22
tp23
S'd'
p24
tp25
((g23
tp26
(g24
tp27
tp28
tp29
sg13
((((g13
tp30
(S'h'
p31
tp32
tp33
g19
tp34
((g33
tp35
(g19
tp36
tp37
tp38
sS'e'
p39
((((g39
tp40
(g13
tp41
tp42
S'f'
p43
tp44
((g42
tp45
(g43
tp46
tp47
tp48
sg24
((((g24
tp49
(S'x'
p50
tp51
tp52
g39
tp53
((g52
tp54
(g39
tp55
tp56
tp57
sS'g'
p58
((((g58
tp59
(S'u'
p60
tp61
tp62
g31
tp63
((g62
tp64
(g31
tp65
tp66
tp67
sg43
((((g43
tp68
(S'i'
p69
tp70
tp71
g58
tp72
((g71
tp73
(g58
tp74
tp75
tp76
sg69
((((g69
tp77
(g39
tp78
tp79
S'j'
p80
tp81
((g79
tp82
(g80
tp83
tp84
tp85
sg31
((((g31
tp86
(g69
tp87
tp88
g69
tp89
((g88
tp90
(g69
tp91
tp92
tp93
sS'k'
p94
((((g94
tp95
(g19
tp96
tp97
S'l'
p98
tp99
((g97
tp100
(g98
tp101
tp102
tp103
sg80
((((g80
tp104
(g19
tp105
tp106
g94
tp107
((g106
tp108
(g94
tp109
tp110
tp111
sS'm'
p112
((((g112
tp113
(g21
tp114
tp115
S'n'
p116
tp117
((g115
tp118
(g116
tp119
tp120
tp121
sg98
((((g98
tp122
(g50
tp123
tp124
g112
tp125
((g124
tp126
(g112
tp127
tp128
tp129
sS'o'
p130
((((g130
tp131
(S's'
p132
tp133
tp134
S'p'
p135
tp136
((g134
tp137
(g135
tp138
tp139
tp140
sg116
((((g116
tp141
(g80
tp142
tp143
g130
tp144
((g143
tp145
(g130
tp146
tp147
tp148
sS'q'
p149
((((g149
tp150
(g149
tp151
tp152
S'r'
p153
tp154
((g152
tp155
(g153
tp156
tp157
tp158
sg135
((((g135
tp159
(g135
tp160
tp161
g149
tp162
((g161
tp163
(g149
tp164
tp165
tp166
sg132
((((g132
tp167
(g153
tp168
tp169
g21
tp170
((g169
tp171
(g21
tp172
tp173
tp174
sg153
((((g153
tp175
(g130
tp176
tp177
g132
tp178
((g177
tp179
(g132
tp180
tp181
tp182
sg60
((((g60
tp183
(g8
tp184
tp185
g10
tp186
((g185
tp187
(g10
tp188
tp189
tp190
sg21
((((g21
tp191
(g112
tp192
tp193
g60
tp194
((g193
tp195
(g60
tp196
tp197
tp198
sS'w'
p199
((((g199
tp200
(g153
tp201
tp202
g50
tp203
((g202
tp204
(g50
tp205
tp206
tp207
sg10
((((g10
tp208
(g21
tp209
tp210
g199
tp211
((g210
tp212
(g199
tp213
tp214
tp215
sS'y'
p216
((((g216
tp217
(g39
tp218
tp219
S'z'
p220
tp221
((g219
tp222
(g220
tp223
tp224
tp225
sg50
((((g50
tp226
(g24
tp227
tp228
g216
tp229
((g228
tp230
(g216
tp231
tp232
tp233
sg220
((((g220
tp234
(g132
tp235
tp236
g8
tp237
((g236
tp238
(g8
tp239
tp240
tp241
ssS'R'
p242
(dp243
g8
(tsg19
(tsg13
(tsg39
((ttp244
sg24
g244
sg58
g244
sg43
(tsg69
(tsg31
(tsg94
g244
sg80
(tsg112
g244
sg98
g244
sg130
g244
sg116
g244
sg149
g244
sg135
g244
sg132
(tsg153
g244
sg60
(tsg21
g244
sg199
g244
sg10
g244
sg216
g244
sg50
g244
sg220
g244
ssb.